; Function Attrs: nounwind uwtable
define internal ptr @type_get_tp_bases(ptr readnone captures(none) %0, ptr noundef readonly captures(none) %1) #0 {
  %3 = getelementptr i8, ptr %1, i64 8
  %.val = load ptr, ptr %3, align 8, !tbaa !3
  %4 = getelementptr i8, ptr %.val, i64 168
  %.val.val = load i64, ptr %4, align 8, !tbaa !9
  %5 = and i64 %.val.val, 2147483648
  %.not7 = icmp eq i64 %5, 0
  br i1 %.not7, label %6, label %8

6:                                                ; preds = %2
  %7 = load ptr, ptr @PyExc_TypeError, align 8, !tbaa !22
  tail call void @PyErr_SetString(ptr noundef %7, ptr noundef nonnull @.str.36) #3
  br label %_Py_NewRef.exit

8:                                                ; preds = %2
  %9 = getelementptr inbounds nuw i8, ptr %1, i64 336
  %10 = load ptr, ptr %9, align 8, !tbaa !28
  %11 = icmp eq ptr %10, null
  br i1 %11, label %_Py_NewRef.exit, label %12

12:                                               ; preds = %8
  %13 = load i32, ptr %10, align 8, !tbaa !20
  %14 = icmp slt i32 %13, 0
  br i1 %14, label %_Py_NewRef.exit, label %15

15:                                               ; preds = %12
  %16 = add nuw i32 %13, 1
  store i32 %16, ptr %10, align 8, !tbaa !20
  br label %_Py_NewRef.exit

_Py_NewRef.exit:                                  ; preds = %15, %12, %8, %6
  %.0 = phi ptr [ null, %6 ], [ @_Py_NoneStruct, %8 ], [ %10, %12 ], [ %10, %15 ]
  ret ptr %.0
}